target datalayout = "e-m:e-p270:32:32-p271:32:32-p272:64:64-i64:64-i128:128-f80:128-n8:16:32:64-S128"
target triple = "x86_64-pc-linux-gnu"

%"struct.ZXing::PointT.0" = type { double, double }
%"class.ZXing::BitMatrix" = type { i32, i32, %"class.std::vector" }
%"class.std::vector" = type { %"struct.std::_Vector_base" }
%"struct.std::_Vector_base" = type { %"struct.std::_Vector_base<unsigned char, std::allocator<unsigned char>>::_Vector_impl" }
%"struct.std::_Vector_base<unsigned char, std::allocator<unsigned char>>::_Vector_impl" = type { %"struct.std::_Vector_base<unsigned char, std::allocator<unsigned char>>::_Vector_impl_data" }
%"struct.std::_Vector_base<unsigned char, std::allocator<unsigned char>>::_Vector_impl_data" = type { ptr, ptr, ptr }
%"struct.ZXing::DataMatrix::ResultPointsAndTransitions" = type { ptr, ptr, i32 }

@.str = private unnamed_addr constant [74 x i8] c"vector::_M_range_check: __n (which is %zu) >= this->size() (which is %zu)\00", align 1

; Function Attrs: mustprogress nounwind uwtable
define linkonce_odr noundef i64 @_ZNKSt6vectorIhSaIhEE4sizeEv(ptr noundef nonnull align 8 dereferenceable(24) %0) #1 comdat align 2 {
  %2 = alloca ptr, align 8
  store ptr %0, ptr %2, align 8
  %3 = load ptr, ptr %2, align 8
  %4 = getelementptr inbounds %"struct.std::_Vector_base", ptr %3, i32 0, i32 0
  %5 = getelementptr inbounds %"struct.std::_Vector_base<unsigned char, std::allocator<unsigned char>>::_Vector_impl_data", ptr %4, i32 0, i32 1
  %6 = load ptr, ptr %5, align 8
  %7 = getelementptr inbounds %"struct.std::_Vector_base", ptr %3, i32 0, i32 0
  %8 = getelementptr inbounds %"struct.std::_Vector_base<unsigned char, std::allocator<unsigned char>>::_Vector_impl_data", ptr %7, i32 0, i32 0
  %9 = load ptr, ptr %8, align 8
  %10 = ptrtoint ptr %6 to i64
  %11 = ptrtoint ptr %9 to i64
  %12 = sub i64 %10, %11
  ret i64 %12
}

; Function Attrs: mustprogress nounwind uwtable
define linkonce_odr noundef nonnull align 1 dereferenceable(1) ptr @_ZNKSt6vectorIhSaIhEEixEm(ptr noundef nonnull align 8 dereferenceable(24) %0, i64 noundef %1) #1 comdat align 2 {
  %3 = alloca ptr, align 8
  %4 = alloca i64, align 8
  store ptr %0, ptr %3, align 8
  store i64 %1, ptr %4, align 8
  %5 = load ptr, ptr %3, align 8
  %6 = getelementptr inbounds %"struct.std::_Vector_base", ptr %5, i32 0, i32 0
  %7 = getelementptr inbounds %"struct.std::_Vector_base<unsigned char, std::allocator<unsigned char>>::_Vector_impl_data", ptr %6, i32 0, i32 0
  %8 = load ptr, ptr %7, align 8
  %9 = load i64, ptr %4, align 8
  %10 = getelementptr inbounds i8, ptr %8, i64 %9
  ret ptr %10
}

; Function Attrs: mustprogress uwtable
define linkonce_odr void @_ZNKSt6vectorIhSaIhEE14_M_range_checkEm(ptr noundef nonnull align 8 dereferenceable(24) %0, i64 noundef %1) #0 comdat align 2 {
  %3 = alloca ptr, align 8
  %4 = alloca i64, align 8
  store ptr %0, ptr %3, align 8
  store i64 %1, ptr %4, align 8
  %5 = load ptr, ptr %3, align 8
  %6 = load i64, ptr %4, align 8
  %7 = call noundef i64 @_ZNKSt6vectorIhSaIhEE4sizeEv(ptr noundef nonnull align 8 dereferenceable(24) %5) #14
  %8 = icmp uge i64 %6, %7
  br i1 %8, label %9, label %12

9:                                                ; preds = %2
  %10 = load i64, ptr %4, align 8
  %11 = call noundef i64 @_ZNKSt6vectorIhSaIhEE4sizeEv(ptr noundef nonnull align 8 dereferenceable(24) %5) #14
  call void (ptr, ...) @_ZSt24__throw_out_of_range_fmtPKcz(ptr noundef @.str, i64 noundef %10, i64 noundef %11) #17
  unreachable

12:                                               ; preds = %2
  ret void
}

; Function Attrs: mustprogress uwtable
define linkonce_odr noundef nonnull align 1 dereferenceable(1) ptr @_ZNKSt6vectorIhSaIhEE2atEm(ptr noundef nonnull align 8 dereferenceable(24) %0, i64 noundef %1) #0 comdat align 2 {
  %3 = alloca ptr, align 8
  %4 = alloca i64, align 8
  store ptr %0, ptr %3, align 8
  store i64 %1, ptr %4, align 8
  %5 = load ptr, ptr %3, align 8
  %6 = load i64, ptr %4, align 8
  call void @_ZNKSt6vectorIhSaIhEE14_M_range_checkEm(ptr noundef nonnull align 8 dereferenceable(24) %5, i64 noundef %6)
  %7 = load i64, ptr %4, align 8
  %8 = call noundef nonnull align 1 dereferenceable(1) ptr @_ZNKSt6vectorIhSaIhEEixEm(ptr noundef nonnull align 8 dereferenceable(24) %5, i64 noundef %7) #14
  ret ptr %8
}

; Function Attrs: mustprogress uwtable
define linkonce_odr noundef nonnull align 1 dereferenceable(1) ptr @_ZNK5ZXing9BitMatrix3getEi(ptr noundef nonnull align 8 dereferenceable(32) %0, i32 noundef %1) #0 comdat align 2 {
  %3 = alloca ptr, align 8
  %4 = alloca i32, align 4
  store ptr %0, ptr %3, align 8
  store i32 %1, ptr %4, align 4
  %5 = load ptr, ptr %3, align 8
  %6 = getelementptr inbounds %"class.ZXing::BitMatrix", ptr %5, i32 0, i32 2
  %7 = load i32, ptr %4, align 4
  %8 = sext i32 %7 to i64
  %9 = call noundef nonnull align 1 dereferenceable(1) ptr @_ZNKSt6vectorIhSaIhEE2atEm(ptr noundef nonnull align 8 dereferenceable(24) %6, i64 noundef %8)
  ret ptr %9
}

; Function Attrs: mustprogress uwtable
define linkonce_odr noundef zeroext i1 @_ZNK5ZXing9BitMatrix3getEii(ptr noundef nonnull align 8 dereferenceable(32) %0, i32 noundef %1, i32 noundef %2) #0 comdat align 2 {
  %4 = alloca ptr, align 8
  %5 = alloca i32, align 4
  %6 = alloca i32, align 4
  store ptr %0, ptr %4, align 8
  store i32 %1, ptr %5, align 4
  store i32 %2, ptr %6, align 4
  %7 = load ptr, ptr %4, align 8
  %8 = load i32, ptr %6, align 4
  %9 = getelementptr inbounds %"class.ZXing::BitMatrix", ptr %7, i32 0, i32 0
  %10 = load i32, ptr %9, align 8
  %11 = mul nsw i32 %8, %10
  %12 = load i32, ptr %5, align 4
  %13 = add nsw i32 %11, %12
  %14 = call noundef nonnull align 1 dereferenceable(1) ptr @_ZNK5ZXing9BitMatrix3getEi(ptr noundef nonnull align 8 dereferenceable(32) %7, i32 noundef %13)
  %15 = load i8, ptr %14, align 1
  %16 = icmp ne i8 %15, 0
  ret i1 %16
}

; Function Attrs: mustprogress nounwind uwtable
define linkonce_odr void @_ZSt4swapIiENSt9enable_ifIXsr6__and_ISt6__not_ISt15__is_tuple_likeIT_EESt21is_move_constructibleIS3_ESt18is_move_assignableIS3_EEE5valueEvE4typeERS3_SC_(ptr noundef nonnull align 4 dereferenceable(4) %0, ptr noundef nonnull align 4 dereferenceable(4) %1) #1 comdat {
  %3 = alloca ptr, align 8
  %4 = alloca ptr, align 8
  %5 = alloca i32, align 4
  store ptr %0, ptr %3, align 8
  store ptr %1, ptr %4, align 8
  %6 = load ptr, ptr %3, align 8
  %7 = load i32, ptr %6, align 4
  store i32 %7, ptr %5, align 4
  %8 = load ptr, ptr %4, align 8
  %9 = load i32, ptr %8, align 4
  %10 = load ptr, ptr %3, align 8
  store i32 %9, ptr %10, align 4
  %11 = load i32, ptr %5, align 4
  %12 = load ptr, ptr %4, align 8
  store i32 %11, ptr %12, align 4
  ret void
}

; Function Attrs: mustprogress nounwind uwtable
define linkonce_odr noundef float @_ZNK5ZXing11ResultPoint1yEv(ptr noundef nonnull align 8 dereferenceable(16) %0) #1 comdat align 2 {
  %2 = alloca ptr, align 8
  store ptr %0, ptr %2, align 8
  %3 = load ptr, ptr %2, align 8
  %4 = getelementptr inbounds %"struct.ZXing::PointT.0", ptr %3, i32 0, i32 1
  %5 = load double, ptr %4, align 8
  %6 = fptrunc double %5 to float
  ret float %6
}

; Function Attrs: mustprogress nounwind uwtable
define linkonce_odr noundef float @_ZNK5ZXing11ResultPoint1xEv(ptr noundef nonnull align 8 dereferenceable(16) %0) #1 comdat align 2 {
  %2 = alloca ptr, align 8
  store ptr %0, ptr %2, align 8
  %3 = load ptr, ptr %2, align 8
  %4 = getelementptr inbounds %"struct.ZXing::PointT.0", ptr %3, i32 0, i32 0
  %5 = load double, ptr %4, align 8
  %6 = fptrunc double %5 to float
  ret float %6
}

; Function Attrs: mustprogress uwtable
define internal void @_ZN5ZXing10DataMatrixL18TransitionsBetweenERKNS_9BitMatrixERKNS_11ResultPointES6_(ptr dead_on_unwind noalias writable sret(%"struct.ZXing::DataMatrix::ResultPointsAndTransitions") align 8 %0, ptr noundef nonnull align 8 dereferenceable(32) %1, ptr noundef nonnull align 8 dereferenceable(16) %2, ptr noundef nonnull align 8 dereferenceable(16) %3) #0 {
  %5 = alloca ptr, align 8
  %6 = alloca ptr, align 8
  %7 = alloca ptr, align 8
  %8 = alloca i32, align 4
  %9 = alloca i32, align 4
  %10 = alloca i32, align 4
  %11 = alloca i32, align 4
  %12 = alloca i8, align 1
  %13 = alloca i32, align 4
  %14 = alloca i32, align 4
  %15 = alloca i32, align 4
  %16 = alloca i32, align 4
  %17 = alloca i32, align 4
  %18 = alloca i32, align 4
  %19 = alloca i8, align 1
  %20 = alloca i32, align 4
  %21 = alloca i32, align 4
  %22 = alloca i8, align 1
  store ptr %1, ptr %5, align 8
  store ptr %2, ptr %6, align 8
  store ptr %3, ptr %7, align 8
  %23 = load ptr, ptr %6, align 8
  %24 = call noundef float @_ZNK5ZXing11ResultPoint1xEv(ptr noundef nonnull align 8 dereferenceable(16) %23)
  %25 = fptosi float %24 to i32
  store i32 %25, ptr %8, align 4
  %26 = load ptr, ptr %6, align 8
  %27 = call noundef float @_ZNK5ZXing11ResultPoint1yEv(ptr noundef nonnull align 8 dereferenceable(16) %26)
  %28 = fptosi float %27 to i32
  store i32 %28, ptr %9, align 4
  %29 = load ptr, ptr %7, align 8
  %30 = call noundef float @_ZNK5ZXing11ResultPoint1xEv(ptr noundef nonnull align 8 dereferenceable(16) %29)
  %31 = fptosi float %30 to i32
  store i32 %31, ptr %10, align 4
  %32 = load ptr, ptr %7, align 8
  %33 = call noundef float @_ZNK5ZXing11ResultPoint1yEv(ptr noundef nonnull align 8 dereferenceable(16) %32)
  %34 = fptosi float %33 to i32
  store i32 %34, ptr %11, align 4
  %35 = load i32, ptr %11, align 4
  %36 = load i32, ptr %9, align 4
  %37 = sub nsw i32 %35, %36
  %38 = call i32 @llvm.abs.i32(i32 %37, i1 true)
  %39 = load i32, ptr %10, align 4
  %40 = load i32, ptr %8, align 4
  %41 = sub nsw i32 %39, %40
  %42 = call i32 @llvm.abs.i32(i32 %41, i1 true)
  %43 = icmp sgt i32 %38, %42
  %44 = zext i1 %43 to i8
  store i8 %44, ptr %12, align 1
  %45 = load i8, ptr %12, align 1
  %46 = trunc i8 %45 to i1
  br i1 %46, label %47, label %48

47:                                               ; preds = %4
  call void @_ZSt4swapIiENSt9enable_ifIXsr6__and_ISt6__not_ISt15__is_tuple_likeIT_EESt21is_move_constructibleIS3_ESt18is_move_assignableIS3_EEE5valueEvE4typeERS3_SC_(ptr noundef nonnull align 4 dereferenceable(4) %8, ptr noundef nonnull align 4 dereferenceable(4) %9) #14
  call void @_ZSt4swapIiENSt9enable_ifIXsr6__and_ISt6__not_ISt15__is_tuple_likeIT_EESt21is_move_constructibleIS3_ESt18is_move_assignableIS3_EEE5valueEvE4typeERS3_SC_(ptr noundef nonnull align 4 dereferenceable(4) %10, ptr noundef nonnull align 4 dereferenceable(4) %11) #14
  br label %48

48:                                               ; preds = %47, %4
  %49 = load i32, ptr %10, align 4
  %50 = load i32, ptr %8, align 4
  %51 = sub nsw i32 %49, %50
  %52 = call i32 @llvm.abs.i32(i32 %51, i1 true)
  store i32 %52, ptr %13, align 4
  %53 = load i32, ptr %11, align 4
  %54 = load i32, ptr %9, align 4
  %55 = sub nsw i32 %53, %54
  %56 = call i32 @llvm.abs.i32(i32 %55, i1 true)
  store i32 %56, ptr %14, align 4
  %57 = load i32, ptr %13, align 4
  %58 = sub nsw i32 0, %57
  %59 = sdiv i32 %58, 2
  store i32 %59, ptr %15, align 4
  %60 = load i32, ptr %9, align 4
  %61 = load i32, ptr %11, align 4
  %62 = icmp slt i32 %60, %61
  %63 = select i1 %62, i32 1, i32 -1
  store i32 %63, ptr %16, align 4
  %64 = load i32, ptr %8, align 4
  %65 = load i32, ptr %10, align 4
  %66 = icmp slt i32 %64, %65
  %67 = select i1 %66, i32 1, i32 -1
  store i32 %67, ptr %17, align 4
  store i32 0, ptr %18, align 4
  %68 = load ptr, ptr %5, align 8
  %69 = load i8, ptr %12, align 1
  %70 = trunc i8 %69 to i1
  br i1 %70, label %71, label %73

71:                                               ; preds = %48
  %72 = load i32, ptr %9, align 4
  br label %75

73:                                               ; preds = %48
  %74 = load i32, ptr %8, align 4
  br label %75

75:                                               ; preds = %73, %71
  %76 = phi i32 [ %72, %71 ], [ %74, %73 ]
  %77 = load i8, ptr %12, align 1
  %78 = trunc i8 %77 to i1
  br i1 %78, label %79, label %81

79:                                               ; preds = %75
  %80 = load i32, ptr %8, align 4
  br label %83

81:                                               ; preds = %75
  %82 = load i32, ptr %9, align 4
  br label %83

83:                                               ; preds = %81, %79
  %84 = phi i32 [ %80, %79 ], [ %82, %81 ]
  %85 = call noundef zeroext i1 @_ZNK5ZXing9BitMatrix3getEii(ptr noundef nonnull align 8 dereferenceable(32) %68, i32 noundef %76, i32 noundef %84)
  %86 = zext i1 %85 to i8
  store i8 %86, ptr %19, align 1
  %87 = load i32, ptr %8, align 4
  store i32 %87, ptr %20, align 4
  %88 = load i32, ptr %9, align 4
  store i32 %88, ptr %21, align 4
  br label %89

89:                                               ; preds = %145, %83
  %90 = load i32, ptr %20, align 4
  %91 = load i32, ptr %10, align 4
  %92 = icmp ne i32 %90, %91
  br i1 %92, label %93, label %149

93:                                               ; preds = %89
  %94 = load ptr, ptr %5, align 8
  %95 = load i8, ptr %12, align 1
  %96 = trunc i8 %95 to i1
  br i1 %96, label %97, label %99

97:                                               ; preds = %93
  %98 = load i32, ptr %21, align 4
  br label %101

99:                                               ; preds = %93
  %100 = load i32, ptr %20, align 4
  br label %101

101:                                              ; preds = %99, %97
  %102 = phi i32 [ %98, %97 ], [ %100, %99 ]
  %103 = load i8, ptr %12, align 1
  %104 = trunc i8 %103 to i1
  br i1 %104, label %105, label %107

105:                                              ; preds = %101
  %106 = load i32, ptr %20, align 4
  br label %109

107:                                              ; preds = %101
  %108 = load i32, ptr %21, align 4
  br label %109

109:                                              ; preds = %107, %105
  %110 = phi i32 [ %106, %105 ], [ %108, %107 ]
  %111 = call noundef zeroext i1 @_ZNK5ZXing9BitMatrix3getEii(ptr noundef nonnull align 8 dereferenceable(32) %94, i32 noundef %102, i32 noundef %110)
  %112 = zext i1 %111 to i8
  store i8 %112, ptr %22, align 1
  %113 = load i8, ptr %22, align 1
  %114 = trunc i8 %113 to i1
  %115 = zext i1 %114 to i32
  %116 = load i8, ptr %19, align 1
  %117 = trunc i8 %116 to i1
  %118 = zext i1 %117 to i32
  %119 = icmp ne i32 %115, %118
  br i1 %119, label %120, label %126

120:                                              ; preds = %109
  %121 = load i32, ptr %18, align 4
  %122 = add nsw i32 %121, 1
  store i32 %122, ptr %18, align 4
  %123 = load i8, ptr %22, align 1
  %124 = trunc i8 %123 to i1
  %125 = zext i1 %124 to i8
  store i8 %125, ptr %19, align 1
  br label %126

126:                                              ; preds = %120, %109
  %127 = load i32, ptr %14, align 4
  %128 = load i32, ptr %15, align 4
  %129 = add nsw i32 %128, %127
  store i32 %129, ptr %15, align 4
  %130 = load i32, ptr %15, align 4
  %131 = icmp sgt i32 %130, 0
  br i1 %131, label %132, label %144

132:                                              ; preds = %126
  %133 = load i32, ptr %21, align 4
  %134 = load i32, ptr %11, align 4
  %135 = icmp eq i32 %133, %134
  br i1 %135, label %136, label %137

136:                                              ; preds = %132
  br label %149

137:                                              ; preds = %132
  %138 = load i32, ptr %16, align 4
  %139 = load i32, ptr %21, align 4
  %140 = add nsw i32 %139, %138
  store i32 %140, ptr %21, align 4
  %141 = load i32, ptr %13, align 4
  %142 = load i32, ptr %15, align 4
  %143 = sub nsw i32 %142, %141
  store i32 %143, ptr %15, align 4
  br label %144

144:                                              ; preds = %137, %126
  br label %145

145:                                              ; preds = %144
  %146 = load i32, ptr %17, align 4
  %147 = load i32, ptr %20, align 4
  %148 = add nsw i32 %147, %146
  store i32 %148, ptr %20, align 4
  br label %89, !llvm.loop !32

149:                                              ; preds = %136, %89
  %150 = getelementptr inbounds %"struct.ZXing::DataMatrix::ResultPointsAndTransitions", ptr %0, i32 0, i32 0
  %151 = load ptr, ptr %6, align 8
  store ptr %151, ptr %150, align 8
  %152 = getelementptr inbounds %"struct.ZXing::DataMatrix::ResultPointsAndTransitions", ptr %0, i32 0, i32 1
  %153 = load ptr, ptr %7, align 8
  store ptr %153, ptr %152, align 8
  %154 = getelementptr inbounds %"struct.ZXing::DataMatrix::ResultPointsAndTransitions", ptr %0, i32 0, i32 2
  %155 = load i32, ptr %18, align 4
  store i32 %155, ptr %154, align 8
  ret void
}