; Function Attrs: mustprogress uwtable
define internal fastcc void @_ZN5ZXing10DataMatrixL18TransitionsBetweenERKNS_9BitMatrixERKNS_11ResultPointES6_(ptr dead_on_unwind noalias nocapture writable writeonly align 8 %0, ptr nocapture noundef nonnull readonly align 8 dereferenceable(32) %1, ptr noundef nonnull align 8 dereferenceable(16) %2, ptr noundef nonnull align 8 dereferenceable(16) %3) unnamed_addr #0 {
  %5 = load <2 x double>, ptr %2, align 8
  %6 = fptrunc <2 x double> %5 to <2 x float>
  %7 = fptosi <2 x float> %6 to <2 x i32>
  %8 = load <2 x double>, ptr %3, align 8
  %9 = fptrunc <2 x double> %8 to <2 x float>
  %10 = fptosi <2 x float> %9 to <2 x i32>
  %11 = sub nsw <2 x i32> %10, %7
  %12 = tail call <2 x i32> @llvm.abs.v2i32(<2 x i32> %11, i1 true)
  %13 = extractelement <2 x i32> %12, i64 0
  %14 = extractelement <2 x i32> %12, i64 1
  %15 = icmp ugt i32 %14, %13
  %16 = shufflevector <2 x i32> %12, <2 x i32> poison, <2 x i32> <i32 1, i32 0>
  %17 = shufflevector <2 x i32> %10, <2 x i32> poison, <2 x i32> <i32 1, i32 0>
  %18 = shufflevector <2 x i32> %7, <2 x i32> poison, <2 x i32> <i32 1, i32 0>
  %19 = select i1 %15, <2 x i32> %12, <2 x i32> %16
  %20 = select i1 %15, <2 x i32> %7, <2 x i32> %18
  %21 = select i1 %15, <2 x i32> %10, <2 x i32> %17
  %22 = icmp slt <2 x i32> %20, %21
  %23 = extractelement <2 x i1> %22, i64 0
  %24 = select i1 %23, i32 1, i32 -1
  %25 = extractelement <2 x i1> %22, i64 1
  %26 = select i1 %25, i32 1, i32 -1
  %27 = load i32, ptr %1, align 8
  %28 = extractelement <2 x i32> %7, i64 1
  %29 = mul nsw i32 %27, %28
  %30 = extractelement <2 x i32> %7, i64 0
  %31 = add nsw i32 %29, %30
  %32 = getelementptr inbounds i8, ptr %1, i64 8
  %33 = sext i32 %31 to i64
  %34 = getelementptr inbounds i8, ptr %1, i64 16
  %35 = load ptr, ptr %34, align 8
  %36 = load ptr, ptr %32, align 8
  %37 = ptrtoint ptr %35 to i64
  %38 = ptrtoint ptr %36 to i64
  %39 = sub i64 %37, %38
  %.not.i.i.i.i = icmp ugt i64 %39, %33
  br i1 %.not.i.i.i.i, label %_ZNK5ZXing9BitMatrix3getEii.exit, label %40

40:                                               ; preds = %4
  tail call void (ptr, ...) @_ZSt24__throw_out_of_range_fmtPKcz(ptr noundef nonnull @.str, i64 noundef %33, i64 noundef %39) #22
  unreachable

_ZNK5ZXing9BitMatrix3getEii.exit:                 ; preds = %4
  %41 = extractelement <2 x i32> %20, i64 1
  %42 = extractelement <2 x i32> %21, i64 1
  %.not63 = icmp eq i32 %41, %42
  br i1 %.not63, label %._crit_edge, label %.lr.ph

.lr.ph:                                           ; preds = %_ZNK5ZXing9BitMatrix3getEii.exit
  %43 = getelementptr inbounds i8, ptr %36, i64 %33
  %44 = load i8, ptr %43, align 1
  %45 = icmp ne i8 %44, 0
  %46 = extractelement <2 x i32> %19, i64 1
  %47 = lshr i32 %46, 1
  %48 = sub nsw i32 0, %47
  %49 = extractelement <2 x i32> %20, i64 0
  br i1 %15, label %.lr.ph.split.us.preheader, label %.lr.ph.split.preheader

.lr.ph.split.preheader:                           ; preds = %.lr.ph
  %50 = extractelement <2 x i32> %19, i64 0
  %51 = extractelement <2 x i32> %21, i64 0
  br label %.lr.ph.split

.lr.ph.split.us.preheader:                        ; preds = %.lr.ph
  %52 = extractelement <2 x i32> %19, i64 0
  %53 = extractelement <2 x i32> %21, i64 0
  br label %.lr.ph.split.us

.lr.ph.split.us:                                  ; preds = %.lr.ph.split.us.preheader, %69
  %.068.us = phi i32 [ %.1.us, %69 ], [ %48, %.lr.ph.split.us.preheader ]
  %.03367.us = phi i32 [ %.134.us, %69 ], [ %49, %.lr.ph.split.us.preheader ]
  %.03566.us = phi i32 [ %70, %69 ], [ %41, %.lr.ph.split.us.preheader ]
  %.03665.us = phi i1 [ %.137.us, %69 ], [ %45, %.lr.ph.split.us.preheader ]
  %.03864.us = phi i32 [ %.139.us, %69 ], [ 0, %.lr.ph.split.us.preheader ]
  %54 = mul nsw i32 %.03566.us, %27
  %55 = add nsw i32 %54, %.03367.us
  %56 = sext i32 %55 to i64
  %.not.i.i.i.i43.us = icmp ugt i64 %39, %56
  br i1 %.not.i.i.i.i43.us, label %_ZNK5ZXing9BitMatrix3getEii.exit44.us, label %.split.us

_ZNK5ZXing9BitMatrix3getEii.exit44.us:            ; preds = %.lr.ph.split.us
  %57 = getelementptr inbounds i8, ptr %36, i64 %56
  %58 = load i8, ptr %57, align 1
  %59 = icmp ne i8 %58, 0
  %60 = xor i1 %.03665.us, %59
  %61 = zext i1 %60 to i32
  %.139.us = add nuw nsw i32 %.03864.us, %61
  %.137.us = select i1 %60, i1 %59, i1 %.03665.us
  %62 = add nsw i32 %.068.us, %52
  %63 = icmp sgt i32 %62, 0
  br i1 %63, label %64, label %69

64:                                               ; preds = %_ZNK5ZXing9BitMatrix3getEii.exit44.us
  %65 = icmp eq i32 %.03367.us, %53
  br i1 %65, label %._crit_edge, label %66

66:                                               ; preds = %64
  %67 = add nsw i32 %.03367.us, %24
  %68 = sub nsw i32 %62, %46
  br label %69

69:                                               ; preds = %66, %_ZNK5ZXing9BitMatrix3getEii.exit44.us
  %.134.us = phi i32 [ %67, %66 ], [ %.03367.us, %_ZNK5ZXing9BitMatrix3getEii.exit44.us ]
  %.1.us = phi i32 [ %68, %66 ], [ %62, %_ZNK5ZXing9BitMatrix3getEii.exit44.us ]
  %70 = add nsw i32 %.03566.us, %26
  %.not.us = icmp eq i32 %70, %42
  br i1 %.not.us, label %._crit_edge, label %.lr.ph.split.us, !llvm.loop !61

.lr.ph.split:                                     ; preds = %.lr.ph.split.preheader, %86
  %.068 = phi i32 [ %.1, %86 ], [ %48, %.lr.ph.split.preheader ]
  %.03367 = phi i32 [ %.134, %86 ], [ %49, %.lr.ph.split.preheader ]
  %.03566 = phi i32 [ %87, %86 ], [ %41, %.lr.ph.split.preheader ]
  %.03665 = phi i1 [ %.137, %86 ], [ %45, %.lr.ph.split.preheader ]
  %.03864 = phi i32 [ %.139, %86 ], [ 0, %.lr.ph.split.preheader ]
  %71 = mul nsw i32 %.03367, %27
  %72 = add nsw i32 %71, %.03566
  %73 = sext i32 %72 to i64
  %.not.i.i.i.i43 = icmp ugt i64 %39, %73
  br i1 %.not.i.i.i.i43, label %_ZNK5ZXing9BitMatrix3getEii.exit44, label %.split.us

.split.us:                                        ; preds = %.lr.ph.split, %.lr.ph.split.us
  %.us-phi72 = phi i64 [ %56, %.lr.ph.split.us ], [ %73, %.lr.ph.split ]
  tail call void (ptr, ...) @_ZSt24__throw_out_of_range_fmtPKcz(ptr noundef nonnull @.str, i64 noundef %.us-phi72, i64 noundef %39) #22
  unreachable

_ZNK5ZXing9BitMatrix3getEii.exit44:               ; preds = %.lr.ph.split
  %74 = getelementptr inbounds i8, ptr %36, i64 %73
  %75 = load i8, ptr %74, align 1
  %76 = icmp ne i8 %75, 0
  %77 = xor i1 %.03665, %76
  %78 = zext i1 %77 to i32
  %.139 = add nuw nsw i32 %.03864, %78
  %.137 = select i1 %77, i1 %76, i1 %.03665
  %79 = add nsw i32 %.068, %50
  %80 = icmp sgt i32 %79, 0
  br i1 %80, label %81, label %86

81:                                               ; preds = %_ZNK5ZXing9BitMatrix3getEii.exit44
  %82 = icmp eq i32 %.03367, %51
  br i1 %82, label %._crit_edge, label %83

83:                                               ; preds = %81
  %84 = add nsw i32 %.03367, %24
  %85 = sub nsw i32 %79, %46
  br label %86

86:                                               ; preds = %_ZNK5ZXing9BitMatrix3getEii.exit44, %83
  %.134 = phi i32 [ %84, %83 ], [ %.03367, %_ZNK5ZXing9BitMatrix3getEii.exit44 ]
  %.1 = phi i32 [ %85, %83 ], [ %79, %_ZNK5ZXing9BitMatrix3getEii.exit44 ]
  %87 = add nsw i32 %.03566, %26
  %.not = icmp eq i32 %87, %42
  br i1 %.not, label %._crit_edge, label %.lr.ph.split, !llvm.loop !61

._crit_edge:                                      ; preds = %86, %81, %69, %64, %_ZNK5ZXing9BitMatrix3getEii.exit
  %.2 = phi i32 [ 0, %_ZNK5ZXing9BitMatrix3getEii.exit ], [ %.139.us, %64 ], [ %.139.us, %69 ], [ %.139, %81 ], [ %.139, %86 ]
  store ptr %2, ptr %0, align 8
  %88 = getelementptr inbounds i8, ptr %0, i64 8
  store ptr %3, ptr %88, align 8
  %89 = getelementptr inbounds i8, ptr %0, i64 16
  store i32 %.2, ptr %89, align 8
  ret void
}